target datalayout = "e-m:e-p270:32:32-p271:32:32-p272:64:64-i64:64-i128:128-f80:128-n8:16:32:64-S128"
target triple = "x86_64-pc-linux-gnu"

%"struct.std::_Rb_tree_header" = type { %"struct.std::_Rb_tree_node_base", i64 }
%"struct.std::_Rb_tree_node_base" = type { i32, ptr, ptr, ptr }
%"class.std::__cxx11::basic_string" = type { %"struct.std::__cxx11::basic_string<char>::_Alloc_hider", i64, %union.anon }
%"struct.std::__cxx11::basic_string<char>::_Alloc_hider" = type { ptr }
%union.anon = type { i64, [8 x i8] }
%"class.llvm::gi::Matcher" = type { ptr }
%"struct.std::_Vector_base.31" = type { %"struct.std::_Vector_base<llvm::Record *, std::allocator<llvm::Record *>>::_Vector_impl" }
%"struct.std::_Vector_base<llvm::Record *, std::allocator<llvm::Record *>>::_Vector_impl" = type { %"struct.std::_Vector_base<llvm::Record *, std::allocator<llvm::Record *>>::_Vector_impl_data" }
%"struct.std::_Vector_base<llvm::Record *, std::allocator<llvm::Record *>>::_Vector_impl_data" = type { ptr, ptr, ptr }
%"class.llvm::gi::RuleMatcher" = type { %"class.llvm::gi::Matcher", %"class.std::vector.108", %"class.std::__cxx11::list", %"class.std::__cxx11::basic_string", %"class.std::map", %"class.llvm::SmallPtrSet", %"class.llvm::StringMap", %"class.llvm::DenseMap.121", i32, i32, i32, i64, i32, i16, %"class.std::vector.124", %"class.std::vector.30", %"class.std::vector.129", %"class.llvm::DenseSet", %"class.llvm::ArrayRef.137", %"class.llvm::StringMap.138", %"class.llvm::StringMap.139", i64 }
%"class.std::vector.108" = type { %"struct.std::_Vector_base.109" }
%"struct.std::_Vector_base.109" = type { %"struct.std::_Vector_base<std::unique_ptr<llvm::gi::InstructionMatcher>, std::allocator<std::unique_ptr<llvm::gi::InstructionMatcher>>>::_Vector_impl" }
%"struct.std::_Vector_base<std::unique_ptr<llvm::gi::InstructionMatcher>, std::allocator<std::unique_ptr<llvm::gi::InstructionMatcher>>>::_Vector_impl" = type { %"struct.std::_Vector_base<std::unique_ptr<llvm::gi::InstructionMatcher>, std::allocator<std::unique_ptr<llvm::gi::InstructionMatcher>>>::_Vector_impl_data" }
%"struct.std::_Vector_base<std::unique_ptr<llvm::gi::InstructionMatcher>, std::allocator<std::unique_ptr<llvm::gi::InstructionMatcher>>>::_Vector_impl_data" = type { ptr, ptr, ptr }
%"class.std::__cxx11::list" = type { %"class.std::__cxx11::_List_base" }
%"class.std::__cxx11::_List_base" = type { %"struct.std::__cxx11::_List_base<std::unique_ptr<llvm::gi::MatchAction>, std::allocator<std::unique_ptr<llvm::gi::MatchAction>>>::_List_impl" }
%"struct.std::__cxx11::_List_base<std::unique_ptr<llvm::gi::MatchAction>, std::allocator<std::unique_ptr<llvm::gi::MatchAction>>>::_List_impl" = type { %"struct.std::__detail::_List_node_header" }
%"struct.std::__detail::_List_node_header" = type { %"struct.std::__detail::_List_node_base", i64 }
%"struct.std::__detail::_List_node_base" = type { ptr, ptr }
%"class.std::map" = type { %"class.std::_Rb_tree.116" }
%"class.std::_Rb_tree.116" = type { %"struct.std::_Rb_tree<llvm::gi::InstructionMatcher *, std::pair<llvm::gi::InstructionMatcher *const, unsigned int>, std::_Select1st<std::pair<llvm::gi::InstructionMatcher *const, unsigned int>>, std::less<llvm::gi::InstructionMatcher *>>::_Rb_tree_impl" }
%"struct.std::_Rb_tree<llvm::gi::InstructionMatcher *, std::pair<llvm::gi::InstructionMatcher *const, unsigned int>, std::_Select1st<std::pair<llvm::gi::InstructionMatcher *const, unsigned int>>, std::less<llvm::gi::InstructionMatcher *>>::_Rb_tree_impl" = type { [8 x i8], %"struct.std::_Rb_tree_header" }
%"class.llvm::SmallPtrSet" = type { %"class.llvm::SmallPtrSetImpl.base", [4 x ptr] }
%"class.llvm::SmallPtrSetImpl.base" = type { %"class.llvm::SmallPtrSetImplBase.base" }
%"class.llvm::SmallPtrSetImplBase.base" = type <{ ptr, ptr, i32, i32, i32 }>
%"class.llvm::StringMap" = type { %"class.llvm::StringMapImpl" }
%"class.llvm::StringMapImpl" = type { ptr, i32, i32, i32, i32 }
%"class.llvm::DenseMap.121" = type <{ ptr, i32, i32, i32, [4 x i8] }>
%"class.std::vector.124" = type { %"struct.std::_Vector_base.125" }
%"struct.std::_Vector_base.125" = type { %"struct.std::_Vector_base<std::__cxx11::basic_string<char>, std::allocator<std::__cxx11::basic_string<char>>>::_Vector_impl" }
%"struct.std::_Vector_base<std::__cxx11::basic_string<char>, std::allocator<std::__cxx11::basic_string<char>>>::_Vector_impl" = type { %"struct.std::_Vector_base<std::__cxx11::basic_string<char>, std::allocator<std::__cxx11::basic_string<char>>>::_Vector_impl_data" }
%"struct.std::_Vector_base<std::__cxx11::basic_string<char>, std::allocator<std::__cxx11::basic_string<char>>>::_Vector_impl_data" = type { ptr, ptr, ptr }
%"class.std::vector.30" = type { %"struct.std::_Vector_base.31" }
%"class.std::vector.129" = type { %"struct.std::_Vector_base.130" }
%"struct.std::_Vector_base.130" = type { %"struct.std::_Vector_base<std::unique_ptr<llvm::gi::PredicateMatcher>, std::allocator<std::unique_ptr<llvm::gi::PredicateMatcher>>>::_Vector_impl" }
%"struct.std::_Vector_base<std::unique_ptr<llvm::gi::PredicateMatcher>, std::allocator<std::unique_ptr<llvm::gi::PredicateMatcher>>>::_Vector_impl" = type { %"struct.std::_Vector_base<std::unique_ptr<llvm::gi::PredicateMatcher>, std::allocator<std::unique_ptr<llvm::gi::PredicateMatcher>>>::_Vector_impl_data" }
%"struct.std::_Vector_base<std::unique_ptr<llvm::gi::PredicateMatcher>, std::allocator<std::unique_ptr<llvm::gi::PredicateMatcher>>>::_Vector_impl_data" = type { ptr, ptr, ptr }
%"class.llvm::DenseSet" = type { %"class.llvm::detail::DenseSetImpl" }
%"class.llvm::detail::DenseSetImpl" = type { %"class.llvm::DenseMap.134" }
%"class.llvm::DenseMap.134" = type <{ ptr, i32, i32, i32, [4 x i8] }>
%"class.llvm::ArrayRef.137" = type { ptr, i64 }
%"class.llvm::StringMap.138" = type { %"class.llvm::StringMapImpl" }
%"class.llvm::StringMap.139" = type { %"class.llvm::StringMapImpl" }
%"struct.std::_Deque_iterator.186" = type { ptr, ptr, ptr, ptr }
%"class.std::deque.188" = type { %"class.std::_Deque_base.189" }
%"class.std::_Deque_base.189" = type { %"struct.std::_Deque_base<std::unique_ptr<llvm::gi::OperandPredicateMatcher>, std::allocator<std::unique_ptr<llvm::gi::OperandPredicateMatcher>>>::_Deque_impl" }
%"struct.std::_Deque_base<std::unique_ptr<llvm::gi::OperandPredicateMatcher>, std::allocator<std::unique_ptr<llvm::gi::OperandPredicateMatcher>>>::_Deque_impl" = type { %"struct.std::_Deque_base<std::unique_ptr<llvm::gi::OperandPredicateMatcher>, std::allocator<std::unique_ptr<llvm::gi::OperandPredicateMatcher>>>::_Deque_impl_data" }
%"struct.std::_Deque_base<std::unique_ptr<llvm::gi::OperandPredicateMatcher>, std::allocator<std::unique_ptr<llvm::gi::OperandPredicateMatcher>>>::_Deque_impl_data" = type { ptr, i64, %"struct.std::_Deque_iterator.186", %"struct.std::_Deque_iterator.186" }
%"class.llvm::gi::OperandMatcher" = type <{ %"class.llvm::gi::PredicateListMatcher.base.193", [7 x i8], ptr, i32, [4 x i8], %"class.std::__cxx11::basic_string", i32, [4 x i8], i64, i8, [7 x i8] }>
%"class.llvm::gi::PredicateListMatcher.base.193" = type <{ %"class.std::deque.188", i8 }>
%"class.std::optional.316" = type { %"struct.std::_Optional_base.317" }
%"struct.std::_Optional_base.317" = type { %"struct.std::_Optional_payload.319" }
%"struct.std::_Optional_payload.319" = type { %"struct.std::_Optional_payload_base.base.321", [7 x i8] }
%"struct.std::_Optional_payload_base.base.321" = type <{ %"union.std::_Optional_payload_base<llvm::gi::RecordRegisterType *>::_Storage", i8 }>
%"union.std::_Optional_payload_base<llvm::gi::RecordRegisterType *>::_Storage" = type { ptr }

; Function Attrs: mustprogress nounwind uwtable
define linkonce_odr hidden noundef i64 @_ZN4llvm2gi11RuleMatcher18getNextTempTypeIdxEv(ptr noundef nonnull align 8 dereferenceable(448) %0) #1 comdat align 2 {
  %2 = alloca ptr, align 8
  store ptr %0, ptr %2, align 8
  %3 = load ptr, ptr %2, align 8
  %4 = getelementptr inbounds nuw %"class.llvm::gi::RuleMatcher", ptr %3, i32 0, i32 11
  %5 = load i64, ptr %4, align 8
  %6 = add nsw i64 %5, -1
  store i64 %6, ptr %4, align 8
  ret i64 %5
}

; Function Attrs: mustprogress nounwind uwtable
define dso_local noundef i64 @_ZN4llvm2gi14OperandMatcher14getTempTypeIdxERNS0_11RuleMatcherE(ptr noundef nonnull align 8 dereferenceable(153) %0, ptr noundef nonnull align 8 dereferenceable(448) %1) #1 align 2 {
  %3 = alloca i64, align 8
  %4 = alloca ptr, align 8
  %5 = alloca ptr, align 8
  %6 = alloca %"class.std::optional.316", align 8
  store ptr %0, ptr %4, align 8
  store ptr %1, ptr %5, align 8
  %7 = load ptr, ptr %4, align 8
  %8 = getelementptr inbounds nuw %"class.llvm::gi::OperandMatcher", ptr %7, i32 0, i32 8
  %9 = load i64, ptr %8, align 8
  %10 = icmp sge i64 %9, 0
  br i1 %10, label %11, label %25

11:                                               ; preds = %2
  %12 = load ptr, ptr %5, align 8
  %13 = call noundef i64 @_ZN4llvm2gi11RuleMatcher18getNextTempTypeIdxEv(ptr noundef nonnull align 8 dereferenceable(448) %12)
  %14 = getelementptr inbounds nuw %"class.llvm::gi::OperandMatcher", ptr %7, i32 0, i32 8
  store i64 %13, ptr %14, align 8
  %15 = getelementptr inbounds nuw %"class.llvm::gi::OperandMatcher", ptr %7, i32 0, i32 8
  %16 = call { ptr, i8 } @_ZN4llvm2gi14OperandMatcher12addPredicateINS0_18RecordRegisterTypeEJRlEEESt8optionalIPT_EDpOT0_(ptr noundef nonnull align 8 dereferenceable(153) %7, ptr noundef nonnull align 8 dereferenceable(8) %15)
  %17 = getelementptr inbounds nuw %"class.std::optional.316", ptr %6, i32 0, i32 0
  %18 = getelementptr inbounds nuw %"struct.std::_Optional_base.317", ptr %17, i32 0, i32 0
  %19 = getelementptr inbounds nuw { ptr, i8 }, ptr %18, i32 0, i32 0
  %20 = extractvalue { ptr, i8 } %16, 0
  store ptr %20, ptr %19, align 8
  %21 = getelementptr inbounds nuw { ptr, i8 }, ptr %18, i32 0, i32 1
  %22 = extractvalue { ptr, i8 } %16, 1
  store i8 %22, ptr %21, align 8
  %23 = getelementptr inbounds nuw %"class.llvm::gi::OperandMatcher", ptr %7, i32 0, i32 8
  %24 = load i64, ptr %23, align 8
  store i64 %24, ptr %3, align 8
  br label %28

25:                                               ; preds = %2
  %26 = getelementptr inbounds nuw %"class.llvm::gi::OperandMatcher", ptr %7, i32 0, i32 8
  %27 = load i64, ptr %26, align 8
  store i64 %27, ptr %3, align 8
  br label %28

28:                                               ; preds = %25, %11
  %29 = load i64, ptr %3, align 8
  ret i64 %29
}