; Function Attrs: mustprogress nounwind uwtable
define dso_local noundef i64 @_ZN4llvm2gi14OperandMatcher14getTempTypeIdxERNS0_11RuleMatcherE(ptr noundef nonnull align 8 dereferenceable(153) %0, ptr nocapture noundef nonnull align 8 dereferenceable(448) %1) local_unnamed_addr #0 align 2 {
  %3 = getelementptr inbounds nuw i8, ptr %0, i64 144
  %4 = load i64, ptr %3, align 8
  %5 = icmp sgt i64 %4, -1
  br i1 %5, label %6, label %12

6:                                                ; preds = %2
  %7 = getelementptr inbounds nuw i8, ptr %1, i64 264
  %8 = load i64, ptr %7, align 8
  %9 = add nsw i64 %8, -1
  store i64 %9, ptr %7, align 8
  store i64 %8, ptr %3, align 8
  %10 = tail call { ptr, i8 } @_ZN4llvm2gi14OperandMatcher12addPredicateINS0_18RecordRegisterTypeEJRlEEESt8optionalIPT_EDpOT0_(ptr noundef nonnull align 8 dereferenceable(153) %0, ptr noundef nonnull align 8 dereferenceable(8) %3)
  %11 = load i64, ptr %3, align 8
  br label %12

12:                                               ; preds = %2, %6
  %.0 = phi i64 [ %11, %6 ], [ %4, %2 ]
  ret i64 %.0
}